   1               		.file	"queue.c"
   2               	__SREG__ = 0x3f
   3               	__SP_H__ = 0x3e
   4               	__SP_L__ = 0x3d
   5               	__CCP__  = 0x34
   6               	__tmp_reg__ = 0
   7               	__zero_reg__ = 1
  15               	.Ltext0:
  16               	.global	uxQueueMessagesWaiting
  18               	uxQueueMessagesWaiting:
  19               	.LFB8:
  20               	.LM1:
  21               	.LVL0:
  22               	/* prologue: function */
  23               	/* frame size = 0 */
  24               	.LM2:
  25               	/* #APP */
  26               	 ;  1232 "../../Source/queue.c" 1
  27 0000 0FB6      		in		__tmp_reg__, __SREG__
  28               	 ;  0 "" 2
  29               	 ;  1232 "../../Source/queue.c" 1
  30 0002 F894      		cli
  31               	 ;  0 "" 2
  32               	 ;  1232 "../../Source/queue.c" 1
  33 0004 0F92      		push	__tmp_reg__
  34               	 ;  0 "" 2
  35               	.LM3:
  36               	/* #NOAPP */
  37 0006 FC01      		movw r30,r24
  38               	.LVL1:
  39 0008 828D      		ldd r24,Z+26
  40               	.LVL2:
  41               	.LM4:
  42               	/* #APP */
  43               	 ;  1234 "../../Source/queue.c" 1
  44 000a 0F90      		pop		__tmp_reg__
  45               	 ;  0 "" 2
  46               	 ;  1234 "../../Source/queue.c" 1
  47 000c 0FBE      		out		__SREG__, __tmp_reg__
  48               	 ;  0 "" 2
  49               	.LVL3:
  50               	/* epilogue start */
  51               	.LM5:
  52               	/* #NOAPP */
  53 000e 0895      		ret
  54               	.LFE8:
  56               	.global	uxQueueMessagesWaitingFromISR
  58               	uxQueueMessagesWaitingFromISR:
  59               	.LFB9:
  60               	.LM6:
  61               	.LVL4:
  62               	/* prologue: function */
  63               	/* frame size = 0 */
  64               	.LM7:
  65 0010 FC01      		movw r30,r24
  66               	.LVL5:
  67 0012 828D      		ldd r24,Z+26
  68               	.LVL6:
  69               	.LVL7:
  70               	/* epilogue start */
  71               	.LM8:
  72 0014 0895      		ret
  73               	.LFE9:
  75               	.global	xQueueIsQueueEmptyFromISR
  77               	xQueueIsQueueEmptyFromISR:
  78               	.LFB15:
  79               	.LM9:
  80               	.LVL8:
  81               	/* prologue: function */
  82               	/* frame size = 0 */
  83               	.LM10:
  84 0016 FC01      		movw r30,r24
  85               	.LVL9:
  86 0018 828D      		ldd r24,Z+26
  87 001a 90E0      		ldi r25,lo8(0)
  88 001c 8823      		tst r24
  89 001e 01F4      		brne .L6
  90 0020 91E0      		ldi r25,lo8(1)
  91               	.L6:
  92               	.LM11:
  93 0022 892F      		mov r24,r25
  94               	/* epilogue start */
  95 0024 0895      		ret
  96               	.LFE15:
  98               	.global	xQueueIsQueueFullFromISR
 100               	xQueueIsQueueFullFromISR:
 101               	.LFB17:
 102               	.LM12:
 103               	.LVL10:
 104               	/* prologue: function */
 105               	/* frame size = 0 */
 106               	.LM13:
 107 0026 FC01      		movw r30,r24
 108               	.LVL11:
 109 0028 928D      		ldd r25,Z+26
 110 002a 20E0      		ldi r18,lo8(0)
 111 002c 838D      		ldd r24,Z+27
 112 002e 9817      		cp r25,r24
 113 0030 01F4      		brne .L9
 114 0032 21E0      		ldi r18,lo8(1)
 115               	.L9:
 116               	.LM14:
 117 0034 822F      		mov r24,r18
 118               	/* epilogue start */
 119 0036 0895      		ret
 120               	.LFE17:
 123               	prvCopyDataToQueue:
 124               	.LFB11:
 125               	.LM15:
 126               	.LVL12:
 127 0038 CF93      		push r28
 128 003a DF93      		push r29
 129               	/* prologue: function */
 130               	/* frame size = 0 */
 131 003c EC01      		movw r28,r24
 132 003e 842F      		mov r24,r20
 133               	.LVL13:
 134               	.LM16:
 135 0040 4C8D      		ldd r20,Y+28
 136               	.LVL14:
 137 0042 4423      		tst r20
 138 0044 01F0      		breq .L12
 139               	.LM17:
 140 0046 8823      		tst r24
 141 0048 01F4      		brne .L13
 142               	.LM18:
 143 004a 8C81      		ldd r24,Y+4
 144               	.LVL15:
 145 004c 9D81      		ldd r25,Y+5
 146 004e 50E0      		ldi r21,lo8(0)
 147 0050 0E94 0000 		call memcpy
 148               	.LVL16:
 149               	.LM19:
 150 0054 8C8D      		ldd r24,Y+28
 151 0056 2C81      		ldd r18,Y+4
 152 0058 3D81      		ldd r19,Y+5
 153 005a 280F      		add r18,r24
 154 005c 311D      		adc r19,__zero_reg__
 155 005e 3D83      		std Y+5,r19
 156 0060 2C83      		std Y+4,r18
 157               	.LM20:
 158 0062 8A81      		ldd r24,Y+2
 159 0064 9B81      		ldd r25,Y+3
 160 0066 2817      		cp r18,r24
 161 0068 3907      		cpc r19,r25
 162 006a 00F0      		brlo .L12
 163               	.LM21:
 164 006c 8881      		ld r24,Y
 165 006e 9981      		ldd r25,Y+1
 166 0070 9D83      		std Y+5,r25
 167 0072 8C83      		std Y+4,r24
 168 0074 00C0      		rjmp .L12
 169               	.LVL17:
 170               	.L13:
 171               	.LM22:
 172 0076 8E81      		ldd r24,Y+6
 173               	.LVL18:
 174 0078 9F81      		ldd r25,Y+7
 175 007a 50E0      		ldi r21,lo8(0)
 176 007c 0E94 0000 		call memcpy
 177               	.LVL19:
 178               	.LM23:
 179 0080 8C8D      		ldd r24,Y+28
 180 0082 90E0      		ldi r25,lo8(0)
 181 0084 4427      		clr r20
 182 0086 5527      		clr r21
 183 0088 481B      		sub r20,r24
 184 008a 590B      		sbc r21,r25
 185 008c 8E81      		ldd r24,Y+6
 186 008e 9F81      		ldd r25,Y+7
 187 0090 840F      		add r24,r20
 188 0092 951F      		adc r25,r21
 189 0094 9F83      		std Y+7,r25
 190 0096 8E83      		std Y+6,r24
 191               	.LM24:
 192 0098 2881      		ld r18,Y
 193 009a 3981      		ldd r19,Y+1
 194 009c 8217      		cp r24,r18
 195 009e 9307      		cpc r25,r19
 196 00a0 00F4      		brsh .L12
 197               	.LM25:
 198 00a2 8A81      		ldd r24,Y+2
 199 00a4 9B81      		ldd r25,Y+3
 200 00a6 840F      		add r24,r20
 201 00a8 951F      		adc r25,r21
 202 00aa 9F83      		std Y+7,r25
 203 00ac 8E83      		std Y+6,r24
 204               	.LVL20:
 205               	.L12:
 206               	.LM26:
 207 00ae 8A8D      		ldd r24,Y+26
 208               	.LVL21:
 209 00b0 8F5F      		subi r24,lo8(-(1))
 210 00b2 8A8F      		std Y+26,r24
 211               	/* epilogue start */
 212               	.LM27:
 213 00b4 DF91      		pop r29
 214 00b6 CF91      		pop r28
 215               	.LVL22:
 216 00b8 0895      		ret
 217               	.LFE11:
 219               	.global	xQueueCRReceiveFromISR
 221               	xQueueCRReceiveFromISR:
 222               	.LFB21:
 223               	.LM28:
 224               	.LVL23:
 225 00ba 0F93      		push r16
 226 00bc 1F93      		push r17
 227 00be CF93      		push r28
 228 00c0 DF93      		push r29
 229               	/* prologue: function */
 230               	/* frame size = 0 */
 231 00c2 FB01      		movw r30,r22
 232               	.LVL24:
 233 00c4 8A01      		movw r16,r20
 234               	.LM29:
 235 00c6 EC01      		movw r28,r24
 236               	.LVL25:
 237               	.LM30:
 238 00c8 8A8D      		ldd r24,Y+26
 239               	.LVL26:
 240 00ca 8823      		tst r24
 241 00cc 01F0      		breq .L19
 242               	.LVL27:
 243               	.LM31:
 244 00ce 8C8D      		ldd r24,Y+28
 245 00d0 2E81      		ldd r18,Y+6
 246 00d2 3F81      		ldd r19,Y+7
 247 00d4 280F      		add r18,r24
 248 00d6 311D      		adc r19,__zero_reg__
 249 00d8 3F83      		std Y+7,r19
 250 00da 2E83      		std Y+6,r18
 251               	.LM32:
 252 00dc 8A81      		ldd r24,Y+2
 253 00de 9B81      		ldd r25,Y+3
 254 00e0 2817      		cp r18,r24
 255 00e2 3907      		cpc r19,r25
 256 00e4 00F0      		brlo .L20
 257               	.LM33:
 258 00e6 8881      		ld r24,Y
 259 00e8 9981      		ldd r25,Y+1
 260 00ea 9F83      		std Y+7,r25
 261 00ec 8E83      		std Y+6,r24
 262               	.L20:
 263               	.LM34:
 264 00ee 8A8D      		ldd r24,Y+26
 265 00f0 8150      		subi r24,lo8(-(-1))
 266 00f2 8A8F      		std Y+26,r24
 267               	.LM35:
 268 00f4 4C8D      		ldd r20,Y+28
 269 00f6 6E81      		ldd r22,Y+6
 270 00f8 7F81      		ldd r23,Y+7
 271 00fa CF01      		movw r24,r30
 272 00fc 50E0      		ldi r21,lo8(0)
 273 00fe 0E94 0000 		call memcpy
 274               	.LM36:
 275 0102 F801      		movw r30,r16
 276 0104 8081      		ld r24,Z
 277 0106 8823      		tst r24
 278 0108 01F4      		brne .L22
 279               	.LM37:
 280 010a 8885      		ldd r24,Y+8
 281 010c 8823      		tst r24
 282 010e 01F0      		breq .L22
 283               	.LM38:
 284 0110 CE01      		movw r24,r28
 285 0112 0896      		adiw r24,8
 286 0114 0E94 0000 		call xCoRoutineRemoveFromEventList
 287 0118 8823      		tst r24
 288 011a 01F0      		breq .L22
 289               	.LM39:
 290 011c 81E0      		ldi r24,lo8(1)
 291 011e F801      		movw r30,r16
 292 0120 8083      		st Z,r24
 293 0122 00C0      		rjmp .L19
 294               	.L22:
 295 0124 81E0      		ldi r24,lo8(1)
 296               	.LVL28:
 297               	.L19:
 298               	.LVL29:
 299               	/* epilogue start */
 300               	.LM40:
 301 0126 DF91      		pop r29
 302 0128 CF91      		pop r28
 303               	.LVL30:
 304 012a 1F91      		pop r17
 305 012c 0F91      		pop r16
 306               	.LVL31:
 307 012e 0895      		ret
 308               	.LFE21:
 310               	.global	xQueueCRSendFromISR
 312               	xQueueCRSendFromISR:
 313               	.LFB20:
 314               	.LM41:
 315               	.LVL32:
 316 0130 1F93      		push r17
 317 0132 CF93      		push r28
 318 0134 DF93      		push r29
 319               	/* prologue: function */
 320               	/* frame size = 0 */
 321 0136 142F      		mov r17,r20
 322               	.LM42:
 323 0138 EC01      		movw r28,r24
 324               	.LVL33:
 325               	.LM43:
 326 013a 9A8D      		ldd r25,Y+26
 327               	.LVL34:
 328 013c 8B8D      		ldd r24,Y+27
 329 013e 9817      		cp r25,r24
 330 0140 00F4      		brsh .L25
 331               	.LVL35:
 332               	.LM44:
 333 0142 CE01      		movw r24,r28
 334 0144 40E0      		ldi r20,lo8(0)
 335 0146 0E94 0000 		call prvCopyDataToQueue
 336               	.LVL36:
 337               	.LM45:
 338 014a 1123      		tst r17
 339 014c 01F4      		brne .L25
 340               	.LM46:
 341 014e 8989      		ldd r24,Y+17
 342 0150 8823      		tst r24
 343 0152 01F0      		breq .L25
 344               	.LM47:
 345 0154 CE01      		movw r24,r28
 346 0156 4196      		adiw r24,17
 347 0158 0E94 0000 		call xCoRoutineRemoveFromEventList
 348 015c 482F      		mov r20,r24
 349 015e 8111      		cpse r24,__zero_reg__
 350 0160 41E0      		ldi r20,lo8(1)
 351               	.L26:
 352 0162 142F      		mov r17,r20
 353               	.LVL37:
 354               	.L25:
 355               	.LM48:
 356 0164 812F      		mov r24,r17
 357               	/* epilogue start */
 358 0166 DF91      		pop r29
 359 0168 CF91      		pop r28
 360               	.LVL38:
 361 016a 1F91      		pop r17
 362               	.LVL39:
 363 016c 0895      		ret
 364               	.LFE20:
 366               	.global	xQueueCRReceive
 368               	xQueueCRReceive:
 369               	.LFB19:
 370               	.LM49:
 371               	.LVL40:
 372 016e CF93      		push r28
 373 0170 DF93      		push r29
 374               	/* prologue: function */
 375               	/* frame size = 0 */
 376 0172 FB01      		movw r30,r22
 377               	.LVL41:
 378               	.LM50:
 379 0174 EC01      		movw r28,r24
 380               	.LVL42:
 381               	.LM51:
 382               	/* #APP */
 383               	 ;  1612 "../../Source/queue.c" 1
 384 0176 F894      		cli
 385               	 ;  0 "" 2
 386               	.LM52:
 387               	/* #NOAPP */
 388 0178 8A8D      		ldd r24,Y+26
 389               	.LVL43:
 390 017a 8823      		tst r24
 391 017c 01F4      		brne .L29
 392               	.LM53:
 393 017e 4115      		cp r20,__zero_reg__
 394 0180 5105      		cpc r21,__zero_reg__
 395 0182 01F0      		breq .L30
 396               	.LM54:
 397 0184 6196      		adiw r28,17
 398 0186 CA01      		movw r24,r20
 399 0188 BE01      		movw r22,r28
 400 018a 0E94 0000 		call vCoRoutineAddToDelayedList
 401               	.LVL44:
 402               	.LM55:
 403               	/* #APP */
 404               	 ;  1623 "../../Source/queue.c" 1
 405 018e 7894      		sei
 406               	 ;  0 "" 2
 407               	/* #NOAPP */
 408 0190 8CEF      		ldi r24,lo8(-4)
 409               	.LVL45:
 410 0192 00C0      		rjmp .L31
 411               	.LVL46:
 412               	.L30:
 413               	.LM56:
 414               	/* #APP */
 415               	 ;  1628 "../../Source/queue.c" 1
 416 0194 7894      		sei
 417               	 ;  0 "" 2
 418               	/* #NOAPP */
 419 0196 80E0      		ldi r24,lo8(0)
 420               	.LVL47:
 421 0198 00C0      		rjmp .L31
 422               	.LVL48:
 423               	.L29:
 424               	.LM57:
 425               	/* #APP */
 426               	 ;  1633 "../../Source/queue.c" 1
 427 019a 7894      		sei
 428               	 ;  0 "" 2
 429               	.LM58:
 430               	 ;  1635 "../../Source/queue.c" 1
 431 019c F894      		cli
 432               	 ;  0 "" 2
 433               	.LM59:
 434               	/* #NOAPP */
 435 019e 8A8D      		ldd r24,Y+26
 436 01a0 8823      		tst r24
 437 01a2 01F0      		breq .L33
 438               	.LM60:
 439 01a4 8C8D      		ldd r24,Y+28
 440 01a6 2E81      		ldd r18,Y+6
 441 01a8 3F81      		ldd r19,Y+7
 442 01aa 280F      		add r18,r24
 443 01ac 311D      		adc r19,__zero_reg__
 444 01ae 3F83      		std Y+7,r19
 445 01b0 2E83      		std Y+6,r18
 446               	.LM61:
 447 01b2 8A81      		ldd r24,Y+2
 448 01b4 9B81      		ldd r25,Y+3
 449 01b6 2817      		cp r18,r24
 450 01b8 3907      		cpc r19,r25
 451 01ba 00F0      		brlo .L34
 452               	.LM62:
 453 01bc 8881      		ld r24,Y
 454 01be 9981      		ldd r25,Y+1
 455 01c0 9F83      		std Y+7,r25
 456 01c2 8E83      		std Y+6,r24
 457               	.L34:
 458               	.LM63:
 459 01c4 8A8D      		ldd r24,Y+26
 460 01c6 8150      		subi r24,lo8(-(-1))
 461 01c8 8A8F      		std Y+26,r24
 462               	.LM64:
 463 01ca 4C8D      		ldd r20,Y+28
 464               	.LVL49:
 465 01cc 6E81      		ldd r22,Y+6
 466 01ce 7F81      		ldd r23,Y+7
 467 01d0 CF01      		movw r24,r30
 468 01d2 50E0      		ldi r21,lo8(0)
 469 01d4 0E94 0000 		call memcpy
 470               	.LM65:
 471 01d8 8885      		ldd r24,Y+8
 472 01da 8823      		tst r24
 473 01dc 01F0      		breq .L36
 474               	.LM66:
 475 01de CE01      		movw r24,r28
 476 01e0 0896      		adiw r24,8
 477 01e2 0E94 0000 		call xCoRoutineRemoveFromEventList
 478 01e6 8823      		tst r24
 479 01e8 01F0      		breq .L36
 480 01ea 8BEF      		ldi r24,lo8(-5)
 481               	.LVL50:
 482 01ec 00C0      		rjmp .L33
 483               	.LVL51:
 484               	.L36:
 485 01ee 81E0      		ldi r24,lo8(1)
 486               	.LVL52:
 487               	.L33:
 488               	.LM67:
 489               	/* #APP */
 490               	 ;  1668 "../../Source/queue.c" 1
 491 01f0 7894      		sei
 492               	 ;  0 "" 2
 493               	/* #NOAPP */
 494               	.L31:
 495               	.LVL53:
 496               	/* epilogue start */
 497               	.LM68:
 498 01f2 DF91      		pop r29
 499 01f4 CF91      		pop r28
 500               	.LVL54:
 501 01f6 0895      		ret
 502               	.LFE19:
 504               	.global	xQueueCRSend
 506               	xQueueCRSend:
 507               	.LFB18:
 508               	.LM69:
 509               	.LVL55:
 510 01f8 CF93      		push r28
 511 01fa DF93      		push r29
 512               	/* prologue: function */
 513               	/* frame size = 0 */
 514               	.LM70:
 515 01fc EC01      		movw r28,r24
 516               	.LVL56:
 517               	.LM71:
 518               	/* #APP */
 519               	 ;  1541 "../../Source/queue.c" 1
 520 01fe F894      		cli
 521               	 ;  0 "" 2
 522               	/* #NOAPP */
 523               	.LBB12:
 524               	.LBB13:
 525               	.LM72:
 526               	/* #APP */
 527               	 ;  1494 "../../Source/queue.c" 1
 528 0200 0FB6      		in		__tmp_reg__, __SREG__
 529               	 ;  0 "" 2
 530               	 ;  1494 "../../Source/queue.c" 1
 531 0202 F894      		cli
 532               	 ;  0 "" 2
 533               	 ;  1494 "../../Source/queue.c" 1
 534 0204 0F92      		push	__tmp_reg__
 535               	 ;  0 "" 2
 536               	.LM73:
 537               	/* #NOAPP */
 538 0206 8A8D      		ldd r24,Y+26
 539               	.LVL57:
 540 0208 9B8D      		ldd r25,Y+27
 541               	.LM74:
 542               	/* #APP */
 543               	 ;  1505 "../../Source/queue.c" 1
 544 020a 0F90      		pop		__tmp_reg__
 545               	 ;  0 "" 2
 546               	 ;  1505 "../../Source/queue.c" 1
 547 020c 0FBE      		out		__SREG__, __tmp_reg__
 548               	 ;  0 "" 2
 549               	/* #NOAPP */
 550               	.LBE13:
 551               	.LBE12:
 552               	.LM75:
 553 020e 8917      		cp r24,r25
 554 0210 01F4      		brne .L39
 555               	.LM76:
 556 0212 4115      		cp r20,__zero_reg__
 557 0214 5105      		cpc r21,__zero_reg__
 558 0216 01F0      		breq .L40
 559               	.LM77:
 560 0218 2896      		adiw r28,8
 561 021a CA01      		movw r24,r20
 562 021c BE01      		movw r22,r28
 563               	.LVL58:
 564 021e 0E94 0000 		call vCoRoutineAddToDelayedList
 565               	.LVL59:
 566               	.LM78:
 567               	/* #APP */
 568               	 ;  1552 "../../Source/queue.c" 1
 569 0222 7894      		sei
 570               	 ;  0 "" 2
 571               	/* #NOAPP */
 572 0224 8CEF      		ldi r24,lo8(-4)
 573               	.LVL60:
 574 0226 00C0      		rjmp .L41
 575               	.LVL61:
 576               	.L40:
 577               	.LM79:
 578               	/* #APP */
 579               	 ;  1557 "../../Source/queue.c" 1
 580 0228 7894      		sei
 581               	 ;  0 "" 2
 582               	/* #NOAPP */
 583 022a 80E0      		ldi r24,lo8(0)
 584               	.LVL62:
 585 022c 00C0      		rjmp .L41
 586               	.LVL63:
 587               	.L39:
 588               	.LM80:
 589               	/* #APP */
 590               	 ;  1562 "../../Source/queue.c" 1
 591 022e 7894      		sei
 592               	 ;  0 "" 2
 593               	.LM81:
 594               	 ;  1564 "../../Source/queue.c" 1
 595 0230 F894      		cli
 596               	 ;  0 "" 2
 597               	.LM82:
 598               	/* #NOAPP */
 599 0232 8A8D      		ldd r24,Y+26
 600 0234 8917      		cp r24,r25
 601 0236 00F0      		brlo .L42
 602 0238 80E0      		ldi r24,lo8(0)
 603               	.LVL64:
 604 023a 00C0      		rjmp .L43
 605               	.LVL65:
 606               	.L42:
 607               	.LM83:
 608 023c CE01      		movw r24,r28
 609 023e 40E0      		ldi r20,lo8(0)
 610               	.LVL66:
 611 0240 0E94 0000 		call prvCopyDataToQueue
 612               	.LVL67:
 613               	.LM84:
 614 0244 8989      		ldd r24,Y+17
 615 0246 8823      		tst r24
 616 0248 01F0      		breq .L44
 617               	.LM85:
 618 024a CE01      		movw r24,r28
 619 024c 4196      		adiw r24,17
 620 024e 0E94 0000 		call xCoRoutineRemoveFromEventList
 621 0252 8823      		tst r24
 622 0254 01F0      		breq .L44
 623 0256 8BEF      		ldi r24,lo8(-5)
 624               	.LVL68:
 625 0258 00C0      		rjmp .L43
 626               	.LVL69:
 627               	.L44:
 628 025a 81E0      		ldi r24,lo8(1)
 629               	.LVL70:
 630               	.L43:
 631               	.LM86:
 632               	/* #APP */
 633               	 ;  1592 "../../Source/queue.c" 1
 634 025c 7894      		sei
 635               	 ;  0 "" 2
 636               	/* #NOAPP */
 637               	.L41:
 638               	.LVL71:
 639               	/* epilogue start */
 640               	.LM87:
 641 025e DF91      		pop r29
 642 0260 CF91      		pop r28
 643               	.LVL72:
 644 0262 0895      		ret
 645               	.LFE18:
 647               	.global	vQueueDelete
 649               	vQueueDelete:
 650               	.LFB10:
 651               	.LM88:
 652               	.LVL73:
 653 0264 0F93      		push r16
 654 0266 1F93      		push r17
 655               	/* prologue: function */
 656               	/* frame size = 0 */
 657               	.LM89:
 658 0268 8C01      		movw r16,r24
 659               	.LVL74:
 660               	.LM90:
 661 026a FC01      		movw r30,r24
 662               	.LVL75:
 663 026c 8081      		ld r24,Z
 664 026e 9181      		ldd r25,Z+1
 665               	.LVL76:
 666 0270 0E94 0000 		call vPortFree
 667               	.LM91:
 668 0274 C801      		movw r24,r16
 669               	.LVL77:
 670 0276 0E94 0000 		call vPortFree
 671               	/* epilogue start */
 672               	.LM92:
 673 027a 1F91      		pop r17
 674 027c 0F91      		pop r16
 675               	.LVL78:
 676 027e 0895      		ret
 677               	.LFE10:
 679               	.global	xQueueReceiveFromISR
 681               	xQueueReceiveFromISR:
 682               	.LFB7:
 683               	.LM93:
 684               	.LVL79:
 685 0280 0F93      		push r16
 686 0282 1F93      		push r17
 687 0284 CF93      		push r28
 688 0286 DF93      		push r29
 689               	/* prologue: function */
 690               	/* frame size = 0 */
 691 0288 FB01      		movw r30,r22
 692               	.LVL80:
 693 028a 8A01      		movw r16,r20
 694               	.LM94:
 695 028c EC01      		movw r28,r24
 696               	.LVL81:
 697               	.LM95:
 698 028e 8A8D      		ldd r24,Y+26
 699               	.LVL82:
 700 0290 8823      		tst r24
 701 0292 01F0      		breq .L50
 702               	.LVL83:
 703               	.LBB14:
 704               	.LBB15:
 705               	.LM96:
 706 0294 4881      		ld r20,Y
 707 0296 5981      		ldd r21,Y+1
 708 0298 4115      		cp r20,__zero_reg__
 709 029a 5105      		cpc r21,__zero_reg__
 710 029c 01F0      		breq .L51
 711               	.LM97:
 712 029e 8C8D      		ldd r24,Y+28
 713 02a0 2E81      		ldd r18,Y+6
 714 02a2 3F81      		ldd r19,Y+7
 715 02a4 280F      		add r18,r24
 716 02a6 311D      		adc r19,__zero_reg__
 717 02a8 3F83      		std Y+7,r19
 718 02aa 2E83      		std Y+6,r18
 719               	.LM98:
 720 02ac 8A81      		ldd r24,Y+2
 721 02ae 9B81      		ldd r25,Y+3
 722 02b0 2817      		cp r18,r24
 723 02b2 3907      		cpc r19,r25
 724 02b4 00F0      		brlo .L52
 725               	.LM99:
 726 02b6 5F83      		std Y+7,r21
 727 02b8 4E83      		std Y+6,r20
 728               	.L52:
 729               	.LM100:
 730 02ba 4C8D      		ldd r20,Y+28
 731 02bc 6E81      		ldd r22,Y+6
 732 02be 7F81      		ldd r23,Y+7
 733 02c0 CF01      		movw r24,r30
 734 02c2 50E0      		ldi r21,lo8(0)
 735 02c4 0E94 0000 		call memcpy
 736               	.L51:
 737               	.LBE15:
 738               	.LBE14:
 739               	.LM101:
 740 02c8 8A8D      		ldd r24,Y+26
 741 02ca 8150      		subi r24,lo8(-(-1))
 742 02cc 8A8F      		std Y+26,r24
 743               	.LM102:
 744 02ce 8D8D      		ldd r24,Y+29
 745 02d0 8F3F      		cpi r24,lo8(-1)
 746 02d2 01F4      		brne .L54
 747               	.LM103:
 748 02d4 8885      		ldd r24,Y+8
 749 02d6 8823      		tst r24
 750 02d8 01F0      		breq .L55
 751               	.LM104:
 752 02da CE01      		movw r24,r28
 753 02dc 0896      		adiw r24,8
 754 02de 0E94 0000 		call xTaskRemoveFromEventList
 755 02e2 8823      		tst r24
 756 02e4 01F0      		breq .L55
 757               	.LM105:
 758 02e6 0115      		cp r16,__zero_reg__
 759 02e8 1105      		cpc r17,__zero_reg__
 760 02ea 01F0      		breq .L55
 761               	.LM106:
 762 02ec 81E0      		ldi r24,lo8(1)
 763 02ee F801      		movw r30,r16
 764 02f0 8083      		st Z,r24
 765 02f2 00C0      		rjmp .L50
 766               	.L54:
 767               	.LM107:
 768 02f4 8D8D      		ldd r24,Y+29
 769 02f6 8F5F      		subi r24,lo8(-(1))
 770 02f8 8D8F      		std Y+29,r24
 771               	.L55:
 772 02fa 81E0      		ldi r24,lo8(1)
 773               	.LVL84:
 774               	.L50:
 775               	.LVL85:
 776               	/* epilogue start */
 777               	.LM108:
 778 02fc DF91      		pop r29
 779 02fe CF91      		pop r28
 780               	.LVL86:
 781 0300 1F91      		pop r17
 782 0302 0F91      		pop r16
 783               	.LVL87:
 784 0304 0895      		ret
 785               	.LFE7:
 787               	.global	xQueueGenericSendFromISR
 789               	xQueueGenericSendFromISR:
 790               	.LFB5:
 791               	.LM109:
 792               	.LVL88:
 793 0306 0F93      		push r16
 794 0308 1F93      		push r17
 795 030a CF93      		push r28
 796 030c DF93      		push r29
 797               	/* prologue: function */
 798               	/* frame size = 0 */
 799 030e 8A01      		movw r16,r20
 800               	.LM110:
 801 0310 EC01      		movw r28,r24
 802               	.LVL89:
 803               	.LM111:
 804 0312 9A8D      		ldd r25,Y+26
 805               	.LVL90:
 806 0314 8B8D      		ldd r24,Y+27
 807 0316 9817      		cp r25,r24
 808 0318 00F0      		brlo .L58
 809               	.LVL91:
 810 031a 80E0      		ldi r24,lo8(0)
 811               	.LVL92:
 812 031c 00C0      		rjmp .L59
 813               	.LVL93:
 814               	.L58:
 815               	.LM112:
 816 031e CE01      		movw r24,r28
 817 0320 422F      		mov r20,r18
 818 0322 0E94 0000 		call prvCopyDataToQueue
 819               	.LVL94:
 820               	.LM113:
 821 0326 8E8D      		ldd r24,Y+30
 822 0328 8F3F      		cpi r24,lo8(-1)
 823 032a 01F4      		brne .L60
 824               	.LM114:
 825 032c 8989      		ldd r24,Y+17
 826 032e 8823      		tst r24
 827 0330 01F0      		breq .L61
 828               	.LM115:
 829 0332 CE01      		movw r24,r28
 830 0334 4196      		adiw r24,17
 831 0336 0E94 0000 		call xTaskRemoveFromEventList
 832 033a 8823      		tst r24
 833 033c 01F0      		breq .L61
 834               	.LM116:
 835 033e 0115      		cp r16,__zero_reg__
 836 0340 1105      		cpc r17,__zero_reg__
 837 0342 01F0      		breq .L61
 838               	.LM117:
 839 0344 81E0      		ldi r24,lo8(1)
 840 0346 F801      		movw r30,r16
 841 0348 8083      		st Z,r24
 842 034a 00C0      		rjmp .L59
 843               	.L60:
 844               	.LM118:
 845 034c 8E8D      		ldd r24,Y+30
 846 034e 8F5F      		subi r24,lo8(-(1))
 847 0350 8E8F      		std Y+30,r24
 848               	.L61:
 849 0352 81E0      		ldi r24,lo8(1)
 850               	.LVL95:
 851               	.L59:
 852               	.LVL96:
 853               	/* epilogue start */
 854               	.LM119:
 855 0354 DF91      		pop r29
 856 0356 CF91      		pop r28
 857               	.LVL97:
 858 0358 1F91      		pop r17
 859 035a 0F91      		pop r16
 860               	.LVL98:
 861 035c 0895      		ret
 862               	.LFE5:
 865               	prvUnlockQueue:
 866               	.LFB13:
 867               	.LM120:
 868               	.LVL99:
 869 035e 0F93      		push r16
 870 0360 1F93      		push r17
 871 0362 CF93      		push r28
 872 0364 DF93      		push r29
 873               	/* prologue: function */
 874               	/* frame size = 0 */
 875 0366 EC01      		movw r28,r24
 876               	.LM121:
 877               	/* #APP */
 878               	 ;  1360 "../../Source/queue.c" 1
 879 0368 0FB6      		in		__tmp_reg__, __SREG__
 880               	 ;  0 "" 2
 881               	 ;  1360 "../../Source/queue.c" 1
 882 036a F894      		cli
 883               	 ;  0 "" 2
 884               	 ;  1360 "../../Source/queue.c" 1
 885 036c 0F92      		push	__tmp_reg__
 886               	 ;  0 "" 2
 887               	.LM122:
 888               	/* #NOAPP */
 889 036e 8C01      		movw r16,r24
 890 0370 0F5E      		subi r16,lo8(-(17))
 891 0372 1F4F      		sbci r17,hi8(-(17))
 892 0374 00C0      		rjmp .L64
 893               	.LVL100:
 894               	.L67:
 895               	.LM123:
 896 0376 8989      		ldd r24,Y+17
 897 0378 8823      		tst r24
 898 037a 01F0      		breq .L65
 899               	.LM124:
 900 037c C801      		movw r24,r16
 901 037e 0E94 0000 		call xTaskRemoveFromEventList
 902 0382 8823      		tst r24
 903 0384 01F0      		breq .L66
 904               	.LM125:
 905 0386 0E94 0000 		call vTaskMissedYield
 906               	.L66:
 907               	.LM126:
 908 038a 8E8D      		ldd r24,Y+30
 909 038c 8150      		subi r24,lo8(-(-1))
 910 038e 8E8F      		std Y+30,r24
 911               	.LVL101:
 912               	.L64:
 913               	.LM127:
 914 0390 8E8D      		ldd r24,Y+30
 915 0392 1816      		cp __zero_reg__,r24
 916 0394 04F0      		brlt .L67
 917               	.L65:
 918               	.LM128:
 919 0396 8FEF      		ldi r24,lo8(-1)
 920 0398 8E8F      		std Y+30,r24
 921               	.LM129:
 922               	/* #APP */
 923               	 ;  1423 "../../Source/queue.c" 1
 924 039a 0F90      		pop		__tmp_reg__
 925               	 ;  0 "" 2
 926               	 ;  1423 "../../Source/queue.c" 1
 927 039c 0FBE      		out		__SREG__, __tmp_reg__
 928               	 ;  0 "" 2
 929               	.LM130:
 930               	 ;  1426 "../../Source/queue.c" 1
 931 039e 0FB6      		in		__tmp_reg__, __SREG__
 932               	 ;  0 "" 2
 933               	 ;  1426 "../../Source/queue.c" 1
 934 03a0 F894      		cli
 935               	 ;  0 "" 2
 936               	 ;  1426 "../../Source/queue.c" 1
 937 03a2 0F92      		push	__tmp_reg__
 938               	 ;  0 "" 2
 939               	.LM131:
 940               	/* #NOAPP */
 941 03a4 8E01      		movw r16,r28
 942 03a6 085F      		subi r16,lo8(-(8))
 943 03a8 1F4F      		sbci r17,hi8(-(8))
 944 03aa 00C0      		rjmp .L68
 945               	.L71:
 946               	.LM132:
 947 03ac 8885      		ldd r24,Y+8
 948 03ae 8823      		tst r24
 949 03b0 01F0      		breq .L69
 950               	.LM133:
 951 03b2 C801      		movw r24,r16
 952 03b4 0E94 0000 		call xTaskRemoveFromEventList
 953 03b8 8823      		tst r24
 954 03ba 01F0      		breq .L70
 955               	.LM134:
 956 03bc 0E94 0000 		call vTaskMissedYield
 957               	.L70:
 958               	.LM135:
 959 03c0 8D8D      		ldd r24,Y+29
 960 03c2 8150      		subi r24,lo8(-(-1))
 961 03c4 8D8F      		std Y+29,r24
 962               	.L68:
 963               	.LM136:
 964 03c6 8D8D      		ldd r24,Y+29
 965 03c8 1816      		cp __zero_reg__,r24
 966 03ca 04F0      		brlt .L71
 967               	.L69:
 968               	.LM137:
 969 03cc 8FEF      		ldi r24,lo8(-1)
 970 03ce 8D8F      		std Y+29,r24
 971               	.LM138:
 972               	/* #APP */
 973               	 ;  1447 "../../Source/queue.c" 1
 974 03d0 0F90      		pop		__tmp_reg__
 975               	 ;  0 "" 2
 976               	 ;  1447 "../../Source/queue.c" 1
 977 03d2 0FBE      		out		__SREG__, __tmp_reg__
 978               	 ;  0 "" 2
 979               	/* epilogue start */
 980               	.LM139:
 981               	/* #NOAPP */
 982 03d4 DF91      		pop r29
 983 03d6 CF91      		pop r28
 984               	.LVL102:
 985 03d8 1F91      		pop r17
 986 03da 0F91      		pop r16
 987 03dc 0895      		ret
 988               	.LFE13:
 990               	.global	xQueueGenericReceive
 992               	xQueueGenericReceive:
 993               	.LFB6:
 994               	.LM140:
 995               	.LVL103:
 996 03de 7F92      		push r7
 997 03e0 8F92      		push r8
 998 03e2 9F92      		push r9
 999 03e4 AF92      		push r10
 1000 03e6 BF92      		push r11
 1001 03e8 CF92      		push r12
 1002 03ea DF92      		push r13
 1003 03ec EF92      		push r14
 1004 03ee FF92      		push r15
 1005 03f0 0F93      		push r16
 1006 03f2 1F93      		push r17
 1007 03f4 DF93      		push r29
 1008 03f6 CF93      		push r28
 1009 03f8 00D0      		rcall .
 1010 03fa 00D0      		rcall .
 1011 03fc 0F92      		push __tmp_reg__
 1012 03fe CDB7      		in r28,__SP_L__
 1013 0400 DEB7      		in r29,__SP_H__
 1014               	/* prologue: function */
 1015               	/* frame size = 5 */
 1016 0402 962E      		mov r9,r22
 1017 0404 872E      		mov r8,r23
 1018               	.LVL104:
 1019 0406 5D83      		std Y+5,r21
 1020 0408 4C83      		std Y+4,r20
 1021 040a 722E      		mov r7,r18
 1022               	.LM141:
 1023 040c 8C01      		movw r16,r24
 1024               	.LVL105:
 1025               	.LM142:
 1026 040e 91E1      		ldi r25,lo8(17)
 1027 0410 C92E      		mov r12,r25
 1028 0412 D12C      		mov r13,__zero_reg__
 1029 0414 C00E      		add r12,r16
 1030 0416 D11E      		adc r13,r17
 1031               	.LVL106:
 1032 0418 20E0      		ldi r18,lo8(0)
 1033               	.LVL107:
 1034               	.LM143:
 1035 041a 7E01      		movw r14,r28
 1036 041c 0894      		sec
 1037 041e E11C      		adc r14,__zero_reg__
 1038 0420 F11C      		adc r15,__zero_reg__
 1039               	.LM144:
 1040 0422 84E0      		ldi r24,lo8(4)
 1041 0424 A82E      		mov r10,r24
 1042 0426 B12C      		mov r11,__zero_reg__
 1043 0428 AC0E      		add r10,r28
 1044 042a BD1E      		adc r11,r29
 1045 042c 00C0      		rjmp .L74
 1046               	.LVL108:
 1047               	.L88:
 1048               	.LM145:
 1049 042e 21E0      		ldi r18,lo8(1)
 1050               	.LVL109:
 1051               	.L74:
 1052               	.LM146:
 1053               	/* #APP */
 1054               	 ;  1033 "../../Source/queue.c" 1
 1055 0430 0FB6      		in		__tmp_reg__, __SREG__
 1056               	 ;  0 "" 2
 1057               	 ;  1033 "../../Source/queue.c" 1
 1058 0432 F894      		cli
 1059               	 ;  0 "" 2
 1060               	 ;  1033 "../../Source/queue.c" 1
 1061 0434 0F92      		push	__tmp_reg__
 1062               	 ;  0 "" 2
 1063               	.LM147:
 1064               	/* #NOAPP */
 1065 0436 F801      		movw r30,r16
 1066 0438 828D      		ldd r24,Z+26
 1067 043a 8823      		tst r24
 1068 043c 01F4      		brne .+2
 1069 043e 00C0      		rjmp .L75
 1070               	.LM148:
 1071 0440 E680      		ldd r14,Z+6
 1072 0442 F780      		ldd r15,Z+7
 1073               	.LVL110:
 1074               	.LBB16:
 1075               	.LBB17:
 1076               	.LM149:
 1077 0444 4081      		ld r20,Z
 1078 0446 5181      		ldd r21,Z+1
 1079 0448 4115      		cp r20,__zero_reg__
 1080 044a 5105      		cpc r21,__zero_reg__
 1081 044c 01F0      		breq .L76
 1082               	.LM150:
 1083 044e 848D      		ldd r24,Z+28
 1084 0450 9701      		movw r18,r14
 1085               	.LVL111:
 1086 0452 280F      		add r18,r24
 1087 0454 311D      		adc r19,__zero_reg__
 1088 0456 3783      		std Z+7,r19
 1089 0458 2683      		std Z+6,r18
 1090               	.LM151:
 1091 045a 8281      		ldd r24,Z+2
 1092 045c 9381      		ldd r25,Z+3
 1093 045e 2817      		cp r18,r24
 1094 0460 3907      		cpc r19,r25
 1095 0462 00F0      		brlo .L77
 1096               	.LM152:
 1097 0464 5783      		std Z+7,r21
 1098 0466 4683      		std Z+6,r20
 1099               	.L77:
 1100               	.LM153:
 1101 0468 F801      		movw r30,r16
 1102 046a 448D      		ldd r20,Z+28
 1103 046c 6681      		ldd r22,Z+6
 1104 046e 7781      		ldd r23,Z+7
 1105 0470 892D      		mov r24,r9
 1106 0472 982D      		mov r25,r8
 1107 0474 50E0      		ldi r21,lo8(0)
 1108 0476 0E94 0000 		call memcpy
 1109               	.LVL112:
 1110               	.L76:
 1111               	.LBE17:
 1112               	.LBE16:
 1113               	.LM154:
 1114 047a 7720      		tst r7
 1115 047c 01F4      		brne .L79
 1116               	.LM155:
 1117 047e F801      		movw r30,r16
 1118 0480 828D      		ldd r24,Z+26
 1119 0482 8150      		subi r24,lo8(-(-1))
 1120 0484 828F      		std Z+26,r24
 1121               	.LM156:
 1122 0486 8085      		ldd r24,Z+8
 1123 0488 8823      		tst r24
 1124 048a 01F0      		breq .L80
 1125               	.LM157:
 1126 048c C801      		movw r24,r16
 1127 048e 0896      		adiw r24,8
 1128 0490 0E94 0000 		call xTaskRemoveFromEventList
 1129               	.LVL113:
 1130 0494 8130      		cpi r24,lo8(1)
 1131 0496 01F4      		brne .L80
 1132 0498 00C0      		rjmp .L90
 1133               	.LVL114:
 1134               	.L79:
 1135               	.LM158:
 1136 049a F801      		movw r30,r16
 1137 049c F782      		std Z+7,r15
 1138 049e E682      		std Z+6,r14
 1139               	.LM159:
 1140 04a0 8189      		ldd r24,Z+17
 1141 04a2 8823      		tst r24
 1142 04a4 01F0      		breq .L80
 1143               	.LM160:
 1144 04a6 C601      		movw r24,r12
 1145 04a8 0E94 0000 		call xTaskRemoveFromEventList
 1146               	.LVL115:
 1147 04ac 8823      		tst r24
 1148 04ae 01F0      		breq .L80
 1149               	.L90:
 1150               	.LM161:
 1151 04b0 0E94 0000 		call vPortYield
 1152               	.LVL116:
 1153               	.L80:
 1154               	.LM162:
 1155               	/* #APP */
 1156               	 ;  1092 "../../Source/queue.c" 1
 1157 04b4 0F90      		pop		__tmp_reg__
 1158               	 ;  0 "" 2
 1159               	 ;  1092 "../../Source/queue.c" 1
 1160 04b6 0FBE      		out		__SREG__, __tmp_reg__
 1161               	 ;  0 "" 2
 1162               	/* #NOAPP */
 1163 04b8 81E0      		ldi r24,lo8(1)
 1164 04ba 00C0      		rjmp .L81
 1165               	.LVL117:
 1166               	.L75:
 1167               	.LM163:
 1168 04bc 8C81      		ldd r24,Y+4
 1169 04be 9D81      		ldd r25,Y+5
 1170 04c0 892B      		or r24,r25
 1171 04c2 01F4      		brne .L82
 1172               	.LVL118:
 1173               	.LM164:
 1174               	/* #APP */
 1175               	 ;  1101 "../../Source/queue.c" 1
 1176 04c4 0F90      		pop		__tmp_reg__
 1177               	 ;  0 "" 2
 1178               	 ;  1101 "../../Source/queue.c" 1
 1179 04c6 0FBE      		out		__SREG__, __tmp_reg__
 1180               	 ;  0 "" 2
 1181               	/* #NOAPP */
 1182 04c8 00C0      		rjmp .L91
 1183               	.L82:
 1184               	.LM165:
 1185 04ca 2223      		tst r18
 1186 04cc 01F4      		brne .L83
 1187               	.LM166:
 1188 04ce C701      		movw r24,r14
 1189               	.LVL119:
 1190 04d0 0E94 0000 		call vTaskSetTimeOutState
 1191               	.LVL120:
 1192               	.L83:
 1193               	.LM167:
 1194               	/* #APP */
 1195               	 ;  1114 "../../Source/queue.c" 1
 1196 04d4 0F90      		pop		__tmp_reg__
 1197               	 ;  0 "" 2
 1198               	 ;  1114 "../../Source/queue.c" 1
 1199 04d6 0FBE      		out		__SREG__, __tmp_reg__
 1200               	 ;  0 "" 2
 1201               	.LM168:
 1202               	/* #NOAPP */
 1203 04d8 0E94 0000 		call vTaskSuspendAll
 1204               	.LVL121:
 1205               	.LM169:
 1206               	/* #APP */
 1207               	 ;  1120 "../../Source/queue.c" 1
 1208 04dc 0FB6      		in		__tmp_reg__, __SREG__
 1209               	 ;  0 "" 2
 1210               	 ;  1120 "../../Source/queue.c" 1
 1211 04de F894      		cli
 1212               	 ;  0 "" 2
 1213               	 ;  1120 "../../Source/queue.c" 1
 1214 04e0 0F92      		push	__tmp_reg__
 1215               	 ;  0 "" 2
 1216               	/* #NOAPP */
 1217 04e2 F801      		movw r30,r16
 1218 04e4 858D      		ldd r24,Z+29
 1219 04e6 8F3F      		cpi r24,lo8(-1)
 1220 04e8 01F4      		brne .L84
 1221 04ea 158E      		std Z+29,__zero_reg__
 1222               	.L84:
 1223 04ec F801      		movw r30,r16
 1224 04ee 868D      		ldd r24,Z+30
 1225 04f0 8F3F      		cpi r24,lo8(-1)
 1226 04f2 01F4      		brne .L85
 1227 04f4 168E      		std Z+30,__zero_reg__
 1228               	.L85:
 1229               	/* #APP */
 1230               	 ;  1120 "../../Source/queue.c" 1
 1231 04f6 0F90      		pop		__tmp_reg__
 1232               	 ;  0 "" 2
 1233               	 ;  1120 "../../Source/queue.c" 1
 1234 04f8 0FBE      		out		__SREG__, __tmp_reg__
 1235               	 ;  0 "" 2
 1236               	.LM170:
 1237               	/* #NOAPP */
 1238 04fa C701      		movw r24,r14
 1239 04fc B501      		movw r22,r10
 1240 04fe 0E94 0000 		call xTaskCheckForTimeOut
 1241 0502 8823      		tst r24
 1242 0504 01F4      		brne .L86
 1243               	.LBB18:
 1244               	.LBB19:
 1245               	.LM171:
 1246               	/* #APP */
 1247               	 ;  1455 "../../Source/queue.c" 1
 1248 0506 0FB6      		in		__tmp_reg__, __SREG__
 1249               	 ;  0 "" 2
 1250               	 ;  1455 "../../Source/queue.c" 1
 1251 0508 F894      		cli
 1252               	 ;  0 "" 2
 1253               	 ;  1455 "../../Source/queue.c" 1
 1254 050a 0F92      		push	__tmp_reg__
 1255               	 ;  0 "" 2
 1256               	.LM172:
 1257               	/* #NOAPP */
 1258 050c F801      		movw r30,r16
 1259 050e 828D      		ldd r24,Z+26
 1260               	.LM173:
 1261               	/* #APP */
 1262               	 ;  1466 "../../Source/queue.c" 1
 1263 0510 0F90      		pop		__tmp_reg__
 1264               	 ;  0 "" 2
 1265               	 ;  1466 "../../Source/queue.c" 1
 1266 0512 0FBE      		out		__SREG__, __tmp_reg__
 1267               	 ;  0 "" 2
 1268               	/* #NOAPP */
 1269               	.LBE19:
 1270               	.LBE18:
 1271               	.LM174:
 1272 0514 8823      		tst r24
 1273 0516 01F4      		brne .L87
 1274               	.LM175:
 1275 0518 6C81      		ldd r22,Y+4
 1276 051a 7D81      		ldd r23,Y+5
 1277 051c C601      		movw r24,r12
 1278 051e 0E94 0000 		call vTaskPlaceOnEventList
 1279               	.LM176:
 1280 0522 C801      		movw r24,r16
 1281 0524 0E94 0000 		call prvUnlockQueue
 1282               	.LM177:
 1283 0528 0E94 0000 		call xTaskResumeAll
 1284 052c 8823      		tst r24
 1285 052e 01F0      		breq .+2
 1286 0530 00C0      		rjmp .L88
 1287               	.LM178:
 1288 0532 0E94 0000 		call vPortYield
 1289 0536 00C0      		rjmp .L88
 1290               	.L87:
 1291               	.LM179:
 1292 0538 C801      		movw r24,r16
 1293 053a 0E94 0000 		call prvUnlockQueue
 1294               	.LM180:
 1295 053e 0E94 0000 		call xTaskResumeAll
 1296 0542 00C0      		rjmp .L88
 1297               	.L86:
 1298               	.LM181:
 1299 0544 C801      		movw r24,r16
 1300 0546 0E94 0000 		call prvUnlockQueue
 1301               	.LM182:
 1302 054a 0E94 0000 		call xTaskResumeAll
 1303               	.LVL122:
 1304               	.L91:
 1305 054e 80E0      		ldi r24,lo8(0)
 1306               	.LVL123:
 1307               	.L81:
 1308               	/* epilogue start */
 1309               	.LM183:
 1310 0550 0F90      		pop __tmp_reg__
 1311 0552 0F90      		pop __tmp_reg__
 1312 0554 0F90      		pop __tmp_reg__
 1313 0556 0F90      		pop __tmp_reg__
 1314 0558 0F90      		pop __tmp_reg__
 1315 055a CF91      		pop r28
 1316 055c DF91      		pop r29
 1317 055e 1F91      		pop r17
 1318 0560 0F91      		pop r16
 1319               	.LVL124:
 1320 0562 FF90      		pop r15
 1321 0564 EF90      		pop r14
 1322               	.LVL125:
 1323 0566 DF90      		pop r13
 1324 0568 CF90      		pop r12
 1325 056a BF90      		pop r11
 1326 056c AF90      		pop r10
 1327 056e 9F90      		pop r9
 1328               	.LVL126:
 1329 0570 8F90      		pop r8
 1330               	.LVL127:
 1331 0572 7F90      		pop r7
 1332               	.LVL128:
 1333 0574 0895      		ret
 1334               	.LFE6:
 1336               	.global	xQueueGenericSend
 1338               	xQueueGenericSend:
 1339               	.LFB4:
 1340               	.LM184:
 1341               	.LVL129:
 1342 0576 7F92      		push r7
 1343 0578 8F92      		push r8
 1344 057a 9F92      		push r9
 1345 057c AF92      		push r10
 1346 057e BF92      		push r11
 1347 0580 CF92      		push r12
 1348 0582 DF92      		push r13
 1349 0584 EF92      		push r14
 1350 0586 FF92      		push r15
 1351 0588 0F93      		push r16
 1352 058a 1F93      		push r17
 1353 058c DF93      		push r29
 1354 058e CF93      		push r28
 1355 0590 00D0      		rcall .
 1356 0592 00D0      		rcall .
 1357 0594 0F92      		push __tmp_reg__
 1358 0596 CDB7      		in r28,__SP_L__
 1359 0598 DEB7      		in r29,__SP_H__
 1360               	/* prologue: function */
 1361               	/* frame size = 5 */
 1362 059a 6B01      		movw r12,r22
 1363 059c 5D83      		std Y+5,r21
 1364 059e 4C83      		std Y+4,r20
 1365 05a0 722E      		mov r7,r18
 1366               	.LM185:
 1367 05a2 8C01      		movw r16,r24
 1368               	.LVL130:
 1369               	.LM186:
 1370 05a4 48E0      		ldi r20,lo8(8)
 1371 05a6 E42E      		mov r14,r20
 1372 05a8 F12C      		mov r15,__zero_reg__
 1373               	.LVL131:
 1374 05aa E80E      		add r14,r24
 1375 05ac F91E      		adc r15,r25
 1376               	.LVL132:
 1377 05ae 20E0      		ldi r18,lo8(0)
 1378               	.LVL133:
 1379               	.LM187:
 1380 05b0 5E01      		movw r10,r28
 1381 05b2 0894      		sec
 1382 05b4 A11C      		adc r10,__zero_reg__
 1383 05b6 B11C      		adc r11,__zero_reg__
 1384               	.LM188:
 1385 05b8 34E0      		ldi r19,lo8(4)
 1386 05ba 832E      		mov r8,r19
 1387 05bc 912C      		mov r9,__zero_reg__
 1388 05be 8C0E      		add r8,r28
 1389 05c0 9D1E      		adc r9,r29
 1390 05c2 00C0      		rjmp .L93
 1391               	.LVL134:
 1392               	.L103:
 1393               	.LM189:
 1394 05c4 21E0      		ldi r18,lo8(1)
 1395               	.LVL135:
 1396               	.L93:
 1397               	.LM190:
 1398               	/* #APP */
 1399               	 ;  569 "../../Source/queue.c" 1
 1400 05c6 0FB6      		in		__tmp_reg__, __SREG__
 1401               	 ;  0 "" 2
 1402               	 ;  569 "../../Source/queue.c" 1
 1403 05c8 F894      		cli
 1404               	 ;  0 "" 2
 1405               	 ;  569 "../../Source/queue.c" 1
 1406 05ca 0F92      		push	__tmp_reg__
 1407               	 ;  0 "" 2
 1408               	.LM191:
 1409               	/* #NOAPP */
 1410 05cc F801      		movw r30,r16
 1411 05ce 928D      		ldd r25,Z+26
 1412 05d0 838D      		ldd r24,Z+27
 1413 05d2 9817      		cp r25,r24
 1414 05d4 00F4      		brsh .L94
 1415               	.LM192:
 1416 05d6 C801      		movw r24,r16
 1417 05d8 B601      		movw r22,r12
 1418 05da 472D      		mov r20,r7
 1419 05dc 0E94 0000 		call prvCopyDataToQueue
 1420               	.LVL136:
 1421               	.LM193:
 1422 05e0 F801      		movw r30,r16
 1423 05e2 8189      		ldd r24,Z+17
 1424 05e4 8823      		tst r24
 1425 05e6 01F0      		breq .L95
 1426               	.LM194:
 1427 05e8 C801      		movw r24,r16
 1428 05ea 4196      		adiw r24,17
 1429 05ec 0E94 0000 		call xTaskRemoveFromEventList
 1430 05f0 8130      		cpi r24,lo8(1)
 1431 05f2 01F4      		brne .L95
 1432               	.LM195:
 1433 05f4 0E94 0000 		call vPortYield
 1434               	.L95:
 1435               	.LM196:
 1436               	/* #APP */
 1437               	 ;  625 "../../Source/queue.c" 1
 1438 05f8 0F90      		pop		__tmp_reg__
 1439               	 ;  0 "" 2
 1440               	 ;  625 "../../Source/queue.c" 1
 1441 05fa 0FBE      		out		__SREG__, __tmp_reg__
 1442               	 ;  0 "" 2
 1443               	/* #NOAPP */
 1444 05fc 81E0      		ldi r24,lo8(1)
 1445 05fe 00C0      		rjmp .L96
 1446               	.LVL137:
 1447               	.L94:
 1448               	.LM197:
 1449 0600 8C81      		ldd r24,Y+4
 1450 0602 9D81      		ldd r25,Y+5
 1451 0604 892B      		or r24,r25
 1452 0606 01F4      		brne .L97
 1453               	.LVL138:
 1454               	.LM198:
 1455               	/* #APP */
 1456               	 ;  637 "../../Source/queue.c" 1
 1457 0608 0F90      		pop		__tmp_reg__
 1458               	 ;  0 "" 2
 1459               	 ;  637 "../../Source/queue.c" 1
 1460 060a 0FBE      		out		__SREG__, __tmp_reg__
 1461               	 ;  0 "" 2
 1462               	/* #NOAPP */
 1463 060c 00C0      		rjmp .L105
 1464               	.L97:
 1465               	.LM199:
 1466 060e 2223      		tst r18
 1467 0610 01F4      		brne .L98
 1468               	.LM200:
 1469 0612 C501      		movw r24,r10
 1470               	.LVL139:
 1471 0614 0E94 0000 		call vTaskSetTimeOutState
 1472               	.LVL140:
 1473               	.L98:
 1474               	.LM201:
 1475               	/* #APP */
 1476               	 ;  653 "../../Source/queue.c" 1
 1477 0618 0F90      		pop		__tmp_reg__
 1478               	 ;  0 "" 2
 1479               	 ;  653 "../../Source/queue.c" 1
 1480 061a 0FBE      		out		__SREG__, __tmp_reg__
 1481               	 ;  0 "" 2
 1482               	.LM202:
 1483               	/* #NOAPP */
 1484 061c 0E94 0000 		call vTaskSuspendAll
 1485               	.LVL141:
 1486               	.LM203:
 1487               	/* #APP */
 1488               	 ;  659 "../../Source/queue.c" 1
 1489 0620 0FB6      		in		__tmp_reg__, __SREG__
 1490               	 ;  0 "" 2
 1491               	 ;  659 "../../Source/queue.c" 1
 1492 0622 F894      		cli
 1493               	 ;  0 "" 2
 1494               	 ;  659 "../../Source/queue.c" 1
 1495 0624 0F92      		push	__tmp_reg__
 1496               	 ;  0 "" 2
 1497               	/* #NOAPP */
 1498 0626 F801      		movw r30,r16
 1499 0628 858D      		ldd r24,Z+29
 1500 062a 8F3F      		cpi r24,lo8(-1)
 1501 062c 01F4      		brne .L99
 1502 062e 158E      		std Z+29,__zero_reg__
 1503               	.L99:
 1504 0630 F801      		movw r30,r16
 1505 0632 868D      		ldd r24,Z+30
 1506 0634 8F3F      		cpi r24,lo8(-1)
 1507 0636 01F4      		brne .L100
 1508 0638 168E      		std Z+30,__zero_reg__
 1509               	.L100:
 1510               	/* #APP */
 1511               	 ;  659 "../../Source/queue.c" 1
 1512 063a 0F90      		pop		__tmp_reg__
 1513               	 ;  0 "" 2
 1514               	 ;  659 "../../Source/queue.c" 1
 1515 063c 0FBE      		out		__SREG__, __tmp_reg__
 1516               	 ;  0 "" 2
 1517               	.LM204:
 1518               	/* #NOAPP */
 1519 063e C501      		movw r24,r10
 1520 0640 B401      		movw r22,r8
 1521 0642 0E94 0000 		call xTaskCheckForTimeOut
 1522 0646 8823      		tst r24
 1523 0648 01F4      		brne .L101
 1524               	.LBB20:
 1525               	.LBB21:
 1526               	.LM205:
 1527               	/* #APP */
 1528               	 ;  1494 "../../Source/queue.c" 1
 1529 064a 0FB6      		in		__tmp_reg__, __SREG__
 1530               	 ;  0 "" 2
 1531               	 ;  1494 "../../Source/queue.c" 1
 1532 064c F894      		cli
 1533               	 ;  0 "" 2
 1534               	 ;  1494 "../../Source/queue.c" 1
 1535 064e 0F92      		push	__tmp_reg__
 1536               	 ;  0 "" 2
 1537               	.LM206:
 1538               	/* #NOAPP */
 1539 0650 F801      		movw r30,r16
 1540 0652 928D      		ldd r25,Z+26
 1541               	.LM207:
 1542               	/* #APP */
 1543               	 ;  1505 "../../Source/queue.c" 1
 1544 0654 0F90      		pop		__tmp_reg__
 1545               	 ;  0 "" 2
 1546               	 ;  1505 "../../Source/queue.c" 1
 1547 0656 0FBE      		out		__SREG__, __tmp_reg__
 1548               	 ;  0 "" 2
 1549               	/* #NOAPP */
 1550               	.LBE21:
 1551               	.LBE20:
 1552               	.LM208:
 1553 0658 F801      		movw r30,r16
 1554 065a 838D      		ldd r24,Z+27
 1555 065c 9817      		cp r25,r24
 1556 065e 01F4      		brne .L102
 1557               	.LM209:
 1558 0660 6C81      		ldd r22,Y+4
 1559 0662 7D81      		ldd r23,Y+5
 1560 0664 C701      		movw r24,r14
 1561 0666 0E94 0000 		call vTaskPlaceOnEventList
 1562               	.LM210:
 1563 066a C801      		movw r24,r16
 1564 066c 0E94 0000 		call prvUnlockQueue
 1565               	.LM211:
 1566 0670 0E94 0000 		call xTaskResumeAll
 1567 0674 8823      		tst r24
 1568 0676 01F0      		breq .+2
 1569 0678 00C0      		rjmp .L103
 1570               	.LM212:
 1571 067a 0E94 0000 		call vPortYield
 1572 067e 00C0      		rjmp .L103
 1573               	.L102:
 1574               	.LM213:
 1575 0680 C801      		movw r24,r16
 1576 0682 0E94 0000 		call prvUnlockQueue
 1577               	.LM214:
 1578 0686 0E94 0000 		call xTaskResumeAll
 1579 068a 00C0      		rjmp .L103
 1580               	.L101:
 1581               	.LM215:
 1582 068c C801      		movw r24,r16
 1583 068e 0E94 0000 		call prvUnlockQueue
 1584               	.LM216:
 1585 0692 0E94 0000 		call xTaskResumeAll
 1586               	.LVL142:
 1587               	.L105:
 1588 0696 80E0      		ldi r24,lo8(0)
 1589               	.L96:
 1590               	/* epilogue start */
 1591               	.LM217:
 1592 0698 0F90      		pop __tmp_reg__
 1593 069a 0F90      		pop __tmp_reg__
 1594 069c 0F90      		pop __tmp_reg__
 1595 069e 0F90      		pop __tmp_reg__
 1596 06a0 0F90      		pop __tmp_reg__
 1597 06a2 CF91      		pop r28
 1598 06a4 DF91      		pop r29
 1599 06a6 1F91      		pop r17
 1600 06a8 0F91      		pop r16
 1601               	.LVL143:
 1602 06aa FF90      		pop r15
 1603 06ac EF90      		pop r14
 1604 06ae DF90      		pop r13
 1605 06b0 CF90      		pop r12
 1606               	.LVL144:
 1607 06b2 BF90      		pop r11
 1608 06b4 AF90      		pop r10
 1609 06b6 9F90      		pop r9
 1610 06b8 8F90      		pop r8
 1611 06ba 7F90      		pop r7
 1612               	.LVL145:
 1613 06bc 0895      		ret
 1614               	.LFE4:
 1616               	.global	xQueueGenericReset
 1618               	xQueueGenericReset:
 1619               	.LFB2:
 1620               	.LM218:
 1621               	.LVL146:
 1622 06be CF93      		push r28
 1623 06c0 DF93      		push r29
 1624               	/* prologue: function */
 1625               	/* frame size = 0 */
 1626               	.LM219:
 1627 06c2 EC01      		movw r28,r24
 1628               	.LVL147:
 1629               	.LM220:
 1630               	/* #APP */
 1631               	 ;  243 "../../Source/queue.c" 1
 1632 06c4 0FB6      		in		__tmp_reg__, __SREG__
 1633               	 ;  0 "" 2
 1634               	 ;  243 "../../Source/queue.c" 1
 1635 06c6 F894      		cli
 1636               	 ;  0 "" 2
 1637               	 ;  243 "../../Source/queue.c" 1
 1638 06c8 0F92      		push	__tmp_reg__
 1639               	 ;  0 "" 2
 1640               	.LM221:
 1641               	/* #NOAPP */
 1642 06ca EC8D      		ldd r30,Y+28
 1643               	.LVL148:
 1644 06cc 2B8D      		ldd r18,Y+27
 1645 06ce E29F      		mul r30,r18
 1646 06d0 C001      		movw r24,r0
 1647 06d2 1124      		clr r1
 1648 06d4 4881      		ld r20,Y
 1649 06d6 5981      		ldd r21,Y+1
 1650 06d8 840F      		add r24,r20
 1651 06da 951F      		adc r25,r21
 1652 06dc 9B83      		std Y+3,r25
 1653 06de 8A83      		std Y+2,r24
 1654               	.LM222:
 1655 06e0 1A8E      		std Y+26,__zero_reg__
 1656               	.LM223:
 1657 06e2 5D83      		std Y+5,r21
 1658 06e4 4C83      		std Y+4,r20
 1659               	.LM224:
 1660 06e6 30E0      		ldi r19,lo8(0)
 1661 06e8 2150      		subi r18,lo8(-(-1))
 1662 06ea 3040      		sbci r19,hi8(-(-1))
 1663 06ec F0E0      		ldi r31,lo8(0)
 1664 06ee 2E9F      		mul r18,r30
 1665 06f0 C001      		movw r24,r0
 1666 06f2 2F9F      		mul r18,r31
 1667 06f4 900D      		add r25,r0
 1668 06f6 3E9F      		mul r19,r30
 1669 06f8 900D      		add r25,r0
 1670 06fa 1124      		clr r1
 1671 06fc 480F      		add r20,r24
 1672 06fe 591F      		adc r21,r25
 1673 0700 5F83      		std Y+7,r21
 1674 0702 4E83      		std Y+6,r20
 1675               	.LM225:
 1676 0704 8FEF      		ldi r24,lo8(-1)
 1677 0706 8D8F      		std Y+29,r24
 1678               	.LM226:
 1679 0708 8E8F      		std Y+30,r24
 1680               	.LM227:
 1681 070a 6623      		tst r22
 1682 070c 01F4      		brne .L107
 1683               	.LM228:
 1684 070e 8885      		ldd r24,Y+8
 1685 0710 8823      		tst r24
 1686 0712 01F0      		breq .L108
 1687               	.LM229:
 1688 0714 CE01      		movw r24,r28
 1689 0716 0896      		adiw r24,8
 1690 0718 0E94 0000 		call xTaskRemoveFromEventList
 1691               	.LVL149:
 1692 071c 8130      		cpi r24,lo8(1)
 1693 071e 01F4      		brne .L108
 1694               	.LM230:
 1695 0720 0E94 0000 		call vPortYield
 1696 0724 00C0      		rjmp .L108
 1697               	.LVL150:
 1698               	.L107:
 1699               	.LM231:
 1700 0726 CE01      		movw r24,r28
 1701 0728 0896      		adiw r24,8
 1702 072a 0E94 0000 		call vListInitialise
 1703               	.LVL151:
 1704               	.LM232:
 1705 072e CE01      		movw r24,r28
 1706 0730 4196      		adiw r24,17
 1707 0732 0E94 0000 		call vListInitialise
 1708               	.LVL152:
 1709               	.L108:
 1710               	.LM233:
 1711               	/* #APP */
 1712               	 ;  274 "../../Source/queue.c" 1
 1713 0736 0F90      		pop		__tmp_reg__
 1714               	 ;  0 "" 2
 1715               	 ;  274 "../../Source/queue.c" 1
 1716 0738 0FBE      		out		__SREG__, __tmp_reg__
 1717               	 ;  0 "" 2
 1718               	.LM234:
 1719               	/* #NOAPP */
 1720 073a 81E0      		ldi r24,lo8(1)
 1721               	/* epilogue start */
 1722 073c DF91      		pop r29
 1723 073e CF91      		pop r28
 1724               	.LVL153:
 1725 0740 0895      		ret
 1726               	.LFE2:
 1728               	.global	xQueueGenericCreate
 1730               	xQueueGenericCreate:
 1731               	.LFB3:
 1732               	.LM235:
 1733               	.LVL154:
 1734 0742 0F93      		push r16
 1735 0744 1F93      		push r17
 1736 0746 CF93      		push r28
 1737 0748 DF93      		push r29
 1738               	/* prologue: function */
 1739               	/* frame size = 0 */
 1740 074a 182F      		mov r17,r24
 1741 074c 062F      		mov r16,r22
 1742               	.LM236:
 1743 074e 8823      		tst r24
 1744 0750 01F0      		breq .L111
 1745               	.LVL155:
 1746               	.LM237:
 1747 0752 8FE1      		ldi r24,lo8(31)
 1748 0754 90E0      		ldi r25,hi8(31)
 1749               	.LVL156:
 1750 0756 0E94 0000 		call pvPortMalloc
 1751               	.LVL157:
 1752 075a EC01      		movw r28,r24
 1753               	.LM238:
 1754 075c 0097      		sbiw r24,0
 1755               	.LVL158:
 1756 075e 01F0      		breq .L111
 1757               	.LM239:
 1758 0760 019F      		mul r16,r17
 1759 0762 C001      		movw r24,r0
 1760 0764 1124      		clr r1
 1761               	.LVL159:
 1762 0766 0196      		adiw r24,1
 1763 0768 0E94 0000 		call pvPortMalloc
 1764 076c 9983      		std Y+1,r25
 1765 076e 8883      		st Y,r24
 1766               	.LVL160:
 1767               	.LM240:
 1768 0770 0097      		sbiw r24,0
 1769 0772 01F0      		breq .L112
 1770               	.LM241:
 1771 0774 1B8F      		std Y+27,r17
 1772               	.LM242:
 1773 0776 0C8F      		std Y+28,r16
 1774               	.LM243:
 1775 0778 CE01      		movw r24,r28
 1776 077a 61E0      		ldi r22,lo8(1)
 1777 077c 0E94 0000 		call xQueueGenericReset
 1778               	.LM244:
 1779 0780 9E01      		movw r18,r28
 1780               	.LVL161:
 1781 0782 00C0      		rjmp .L113
 1782               	.LVL162:
 1783               	.L112:
 1784               	.LM245:
 1785 0784 CE01      		movw r24,r28
 1786 0786 0E94 0000 		call vPortFree
 1787               	.LVL163:
 1788               	.L111:
 1789 078a 20E0      		ldi r18,lo8(0)
 1790 078c 30E0      		ldi r19,hi8(0)
 1791               	.LVL164:
 1792               	.L113:
 1793               	.LM246:
 1794 078e C901      		movw r24,r18
 1795               	.LVL165:
 1796               	/* epilogue start */
 1797 0790 DF91      		pop r29
 1798 0792 CF91      		pop r28
 1799               	.LVL166:
 1800 0794 1F91      		pop r17
 1801               	.LVL167:
 1802 0796 0F91      		pop r16
 1803               	.LVL168:
 1804 0798 0895      		ret
 1805               	.LFE3:
 1959               	.Letext0:
DEFINED SYMBOLS
                            *ABS*:00000000 queue.c
C:\Users\Alex\AppData\Local\Temp/ccuqLXfe.s:2      *ABS*:0000003f __SREG__
C:\Users\Alex\AppData\Local\Temp/ccuqLXfe.s:3      *ABS*:0000003e __SP_H__
C:\Users\Alex\AppData\Local\Temp/ccuqLXfe.s:4      *ABS*:0000003d __SP_L__
C:\Users\Alex\AppData\Local\Temp/ccuqLXfe.s:5      *ABS*:00000034 __CCP__
C:\Users\Alex\AppData\Local\Temp/ccuqLXfe.s:6      *ABS*:00000000 __tmp_reg__
C:\Users\Alex\AppData\Local\Temp/ccuqLXfe.s:7      *ABS*:00000001 __zero_reg__
C:\Users\Alex\AppData\Local\Temp/ccuqLXfe.s:18     .text:00000000 uxQueueMessagesWaiting
C:\Users\Alex\AppData\Local\Temp/ccuqLXfe.s:58     .text:00000010 uxQueueMessagesWaitingFromISR
C:\Users\Alex\AppData\Local\Temp/ccuqLXfe.s:77     .text:00000016 xQueueIsQueueEmptyFromISR
C:\Users\Alex\AppData\Local\Temp/ccuqLXfe.s:100    .text:00000026 xQueueIsQueueFullFromISR
C:\Users\Alex\AppData\Local\Temp/ccuqLXfe.s:123    .text:00000038 prvCopyDataToQueue
C:\Users\Alex\AppData\Local\Temp/ccuqLXfe.s:221    .text:000000ba xQueueCRReceiveFromISR
C:\Users\Alex\AppData\Local\Temp/ccuqLXfe.s:312    .text:00000130 xQueueCRSendFromISR
C:\Users\Alex\AppData\Local\Temp/ccuqLXfe.s:368    .text:0000016e xQueueCRReceive
C:\Users\Alex\AppData\Local\Temp/ccuqLXfe.s:506    .text:000001f8 xQueueCRSend
C:\Users\Alex\AppData\Local\Temp/ccuqLXfe.s:649    .text:00000264 vQueueDelete
C:\Users\Alex\AppData\Local\Temp/ccuqLXfe.s:681    .text:00000280 xQueueReceiveFromISR
C:\Users\Alex\AppData\Local\Temp/ccuqLXfe.s:789    .text:00000306 xQueueGenericSendFromISR
C:\Users\Alex\AppData\Local\Temp/ccuqLXfe.s:865    .text:0000035e prvUnlockQueue
C:\Users\Alex\AppData\Local\Temp/ccuqLXfe.s:992    .text:000003de xQueueGenericReceive
C:\Users\Alex\AppData\Local\Temp/ccuqLXfe.s:1338   .text:00000576 xQueueGenericSend
C:\Users\Alex\AppData\Local\Temp/ccuqLXfe.s:1618   .text:000006be xQueueGenericReset
C:\Users\Alex\AppData\Local\Temp/ccuqLXfe.s:1730   .text:00000742 xQueueGenericCreate

UNDEFINED SYMBOLS
memcpy
xCoRoutineRemoveFromEventList
vCoRoutineAddToDelayedList
vPortFree
xTaskRemoveFromEventList
vTaskMissedYield
vPortYield
vTaskSetTimeOutState
vTaskSuspendAll
xTaskCheckForTimeOut
vTaskPlaceOnEventList
xTaskResumeAll
vListInitialise
pvPortMalloc
